target datalayout = "e-m:e-p270:32:32-p271:32:32-p272:64:64-i64:64-i128:128-f80:128-n8:16:32:64-S128"
target triple = "x86_64-pc-linux-gnu"

%struct.H5O_pline_t = type { %struct.H5O_shared_t, i32, i64, i64, ptr }
%struct.H5O_shared_t = type { i32, ptr, i32, %union.anon.1 }
%union.anon.1 = type { %struct.H5O_mesg_loc_t }
%struct.H5O_mesg_loc_t = type { i32, i64 }
%struct.H5O_layout_t = type { i32, i32, ptr, %union.anon.24, %struct.H5O_storage_t }
%union.anon.24 = type { %struct.H5O_layout_chunk_t }
%struct.H5O_layout_chunk_t = type { i32, i8, i32, [33 x i32], i32, i32, i64, i64, [33 x i64], [33 x i64], [33 x i64], [33 x i64], %union.anon.25 }
%union.anon.25 = type { %struct.H5O_layout_chunk_earray_t }
%struct.H5O_layout_chunk_earray_t = type { %struct.anon.27, i32, [33 x i32], [33 x i64], [33 x i64] }
%struct.anon.27 = type { i8, i8, i8, i8, i8 }
%struct.H5O_storage_t = type { i32, %union.anon.29 }
%union.anon.29 = type { %struct.H5O_storage_virtual_t }
%struct.H5O_storage_virtual_t = type { %struct.H5HG_t, i64, ptr, i64, [32 x i64], i32, i64, i64, i64, i8 }
%struct.H5HG_t = type { i64, i64 }

@.str = private unnamed_addr constant [97 x i8] c"generated/home/dtcxzyw/WorkSpace/Projects/compilers/llvm-opt-benchmark/bench/hdf5/hdf5/src/H5Z.c\00", align 1
@H5E_PLINE_g = external global i64, align 8
@H5E_ARGS_g = external global i64, align 8
@H5E_RESOURCE_g = external global i64, align 8
@H5E_NOSPACE_g = external global i64, align 8
@H5E_CANTRELEASE_g = external global i64, align 8
@H5E_CANAPPLY_g = external global i64, align 8
@.str.21 = private unnamed_addr constant [23 x i8] c"unable to apply filter\00", align 1
@H5E_BADTYPE_g = external global i64, align 8
@.str.23 = private unnamed_addr constant [41 x i8] c"can't get dataset creation property list\00", align 1
@.str.24 = private unnamed_addr constant [6 x i8] c"pline\00", align 1
@H5E_CANTGET_g = external global i64, align 8
@.str.25 = private unnamed_addr constant [31 x i8] c"can't retrieve pipeline filter\00", align 1
@H5P_LST_DATASET_CREATE_ID_g = external global i64, align 8
@__func__.H5Z__prepare_prelude_callback_dcpl = private unnamed_addr constant [35 x i8] c"H5Z__prepare_prelude_callback_dcpl\00", align 1
@.str.53 = private unnamed_addr constant [38 x i8] c"unable to allocate dcpl layout buffer\00", align 1
@.str.54 = private unnamed_addr constant [7 x i8] c"layout\00", align 1
@H5E_PLIST_g = external global i64, align 8
@.str.55 = private unnamed_addr constant [22 x i8] c"can't retrieve layout\00", align 1
@H5E_DATASPACE_g = external global i64, align 8
@H5E_CANTCREATE_g = external global i64, align 8
@.str.56 = private unnamed_addr constant [30 x i8] c"can't create simple dataspace\00", align 1
@H5E_ID_g = external global i64, align 8
@H5E_CANTREGISTER_g = external global i64, align 8
@.str.57 = private unnamed_addr constant [32 x i8] c"unable to register dataspace ID\00", align 1
@.str.58 = private unnamed_addr constant [26 x i8] c"unable to close dataspace\00", align 1

; Function Attrs: nounwind uwtable
define internal i32 @H5Z__prepare_prelude_callback_dcpl(i64 noundef %0, i64 noundef %1, i32 noundef %2) #0 {
  %4 = alloca i64, align 8
  %5 = alloca i64, align 8
  %6 = alloca i32, align 4
  %7 = alloca i64, align 8
  %8 = alloca ptr, align 8
  %9 = alloca i32, align 4
  %10 = alloca i8, align 1
  %11 = alloca ptr, align 8
  %12 = alloca %struct.H5O_pline_t, align 8
  %13 = alloca [33 x i64], align 16
  %14 = alloca ptr, align 8
  %15 = alloca i64, align 8
  store i64 %0, ptr %4, align 8
  store i64 %1, ptr %5, align 8
  store i32 %2, ptr %6, align 4
  store i64 -1, ptr %7, align 8
  store ptr null, ptr %8, align 8
  store i32 0, ptr %9, align 4
  store i8 0, ptr %10, align 1
  %16 = load i64, ptr %4, align 8
  %17 = load i64, ptr @H5P_LST_DATASET_CREATE_ID_g, align 8
  %18 = icmp ne i64 %16, %17
  br i1 %18, label %19, label %195

19:                                               ; preds = %3
  %20 = call noalias ptr @calloc(i64 noundef 1, i64 noundef 2256) #7
  store ptr %20, ptr %8, align 8
  %21 = icmp eq ptr null, %20
  br i1 %21, label %22, label %37

22:                                               ; preds = %19
  br label %23

23:                                               ; preds = %22
  br label %24

24:                                               ; preds = %23
  br label %25

25:                                               ; preds = %24
  %26 = load i64, ptr @H5E_RESOURCE_g, align 8
  %27 = load i64, ptr @H5E_NOSPACE_g, align 8
  %28 = call i32 (ptr, ptr, i32, i64, i64, ptr, ...) @H5E_printf_stack(ptr noundef @.str, ptr noundef @__func__.H5Z__prepare_prelude_callback_dcpl, i32 noundef 865, i64 noundef %26, i64 noundef %27, ptr noundef @.str.53)
  br label %29

29:                                               ; preds = %25
  store i8 1, ptr %10, align 1
  %30 = load i8, ptr %10, align 1
  %31 = trunc i8 %30 to i1
  %32 = zext i1 %31 to i8
  store i8 %32, ptr %10, align 1
  br label %33

33:                                               ; preds = %29
  br label %34

34:                                               ; preds = %33
  store i32 -1, ptr %9, align 4
  br label %196

35:                                               ; No predecessors!
  br label %36

36:                                               ; preds = %35
  br label %37

37:                                               ; preds = %36, %19
  %38 = load i64, ptr %4, align 8
  %39 = call ptr @H5I_object(i64 noundef %38)
  store ptr %39, ptr %11, align 8
  %40 = icmp eq ptr null, %39
  br i1 %40, label %41, label %56

41:                                               ; preds = %37
  br label %42

42:                                               ; preds = %41
  br label %43

43:                                               ; preds = %42
  br label %44

44:                                               ; preds = %43
  %45 = load i64, ptr @H5E_ARGS_g, align 8
  %46 = load i64, ptr @H5E_BADTYPE_g, align 8
  %47 = call i32 (ptr, ptr, i32, i64, i64, ptr, ...) @H5E_printf_stack(ptr noundef @.str, ptr noundef @__func__.H5Z__prepare_prelude_callback_dcpl, i32 noundef 869, i64 noundef %45, i64 noundef %46, ptr noundef @.str.23)
  br label %48

48:                                               ; preds = %44
  store i8 1, ptr %10, align 1
  %49 = load i8, ptr %10, align 1
  %50 = trunc i8 %49 to i1
  %51 = zext i1 %50 to i8
  store i8 %51, ptr %10, align 1
  br label %52

52:                                               ; preds = %48
  br label %53

53:                                               ; preds = %52
  store i32 -1, ptr %9, align 4
  br label %196

54:                                               ; No predecessors!
  br label %55

55:                                               ; preds = %54
  br label %56

56:                                               ; preds = %55, %37
  %57 = load ptr, ptr %11, align 8
  %58 = load ptr, ptr %8, align 8
  %59 = call i32 @H5P_peek(ptr noundef %57, ptr noundef @.str.54, ptr noundef %58)
  %60 = icmp slt i32 %59, 0
  br i1 %60, label %61, label %76

61:                                               ; preds = %56
  br label %62

62:                                               ; preds = %61
  br label %63

63:                                               ; preds = %62
  br label %64

64:                                               ; preds = %63
  %65 = load i64, ptr @H5E_PLIST_g, align 8
  %66 = load i64, ptr @H5E_CANTGET_g, align 8
  %67 = call i32 (ptr, ptr, i32, i64, i64, ptr, ...) @H5E_printf_stack(ptr noundef @.str, ptr noundef @__func__.H5Z__prepare_prelude_callback_dcpl, i32 noundef 873, i64 noundef %65, i64 noundef %66, ptr noundef @.str.55)
  br label %68

68:                                               ; preds = %64
  store i8 1, ptr %10, align 1
  %69 = load i8, ptr %10, align 1
  %70 = trunc i8 %69 to i1
  %71 = zext i1 %70 to i8
  store i8 %71, ptr %10, align 1
  br label %72

72:                                               ; preds = %68
  br label %73

73:                                               ; preds = %72
  store i32 -1, ptr %9, align 4
  br label %196

74:                                               ; No predecessors!
  br label %75

75:                                               ; preds = %74
  br label %76

76:                                               ; preds = %75, %56
  %77 = load ptr, ptr %8, align 8
  %78 = getelementptr inbounds %struct.H5O_layout_t, ptr %77, i32 0, i32 0
  %79 = load i32, ptr %78, align 8
  %80 = icmp eq i32 2, %79
  br i1 %80, label %81, label %194

81:                                               ; preds = %76
  %82 = load ptr, ptr %11, align 8
  %83 = call i32 @H5P_peek(ptr noundef %82, ptr noundef @.str.24, ptr noundef %12)
  %84 = icmp slt i32 %83, 0
  br i1 %84, label %85, label %100

85:                                               ; preds = %81
  br label %86

86:                                               ; preds = %85
  br label %87

87:                                               ; preds = %86
  br label %88

88:                                               ; preds = %87
  %89 = load i64, ptr @H5E_PLIST_g, align 8
  %90 = load i64, ptr @H5E_CANTGET_g, align 8
  %91 = call i32 (ptr, ptr, i32, i64, i64, ptr, ...) @H5E_printf_stack(ptr noundef @.str, ptr noundef @__func__.H5Z__prepare_prelude_callback_dcpl, i32 noundef 881, i64 noundef %89, i64 noundef %90, ptr noundef @.str.25)
  br label %92

92:                                               ; preds = %88
  store i8 1, ptr %10, align 1
  %93 = load i8, ptr %10, align 1
  %94 = trunc i8 %93 to i1
  %95 = zext i1 %94 to i8
  store i8 %95, ptr %10, align 1
  br label %96

96:                                               ; preds = %92
  br label %97

97:                                               ; preds = %96
  store i32 -1, ptr %9, align 4
  br label %196

98:                                               ; No predecessors!
  br label %99

99:                                               ; preds = %98
  br label %100

100:                                              ; preds = %99, %81
  %101 = getelementptr inbounds %struct.H5O_pline_t, ptr %12, i32 0, i32 3
  %102 = load i64, ptr %101, align 8
  %103 = icmp ugt i64 %102, 0
  br i1 %103, label %104, label %193

104:                                              ; preds = %100
  store i64 0, ptr %15, align 8
  br label %105

105:                                              ; preds = %123, %104
  %106 = load i64, ptr %15, align 8
  %107 = load ptr, ptr %8, align 8
  %108 = getelementptr inbounds %struct.H5O_layout_t, ptr %107, i32 0, i32 3
  %109 = getelementptr inbounds %struct.H5O_layout_chunk_t, ptr %108, i32 0, i32 2
  %110 = load i32, ptr %109, align 8
  %111 = zext i32 %110 to i64
  %112 = icmp ult i64 %106, %111
  br i1 %112, label %113, label %126

113:                                              ; preds = %105
  %114 = load ptr, ptr %8, align 8
  %115 = getelementptr inbounds %struct.H5O_layout_t, ptr %114, i32 0, i32 3
  %116 = getelementptr inbounds %struct.H5O_layout_chunk_t, ptr %115, i32 0, i32 3
  %117 = load i64, ptr %15, align 8
  %118 = getelementptr inbounds [33 x i32], ptr %116, i64 0, i64 %117
  %119 = load i32, ptr %118, align 4
  %120 = zext i32 %119 to i64
  %121 = load i64, ptr %15, align 8
  %122 = getelementptr inbounds [33 x i64], ptr %13, i64 0, i64 %121
  store i64 %120, ptr %122, align 8
  br label %123

123:                                              ; preds = %113
  %124 = load i64, ptr %15, align 8
  %125 = add i64 %124, 1
  store i64 %125, ptr %15, align 8
  br label %105

126:                                              ; preds = %105
  %127 = load ptr, ptr %8, align 8
  %128 = getelementptr inbounds %struct.H5O_layout_t, ptr %127, i32 0, i32 3
  %129 = getelementptr inbounds %struct.H5O_layout_chunk_t, ptr %128, i32 0, i32 2
  %130 = load i32, ptr %129, align 8
  %131 = getelementptr inbounds [33 x i64], ptr %13, i64 0, i64 0
  %132 = call ptr @H5S_create_simple(i32 noundef %130, ptr noundef %131, ptr noundef null)
  store ptr %132, ptr %14, align 8
  %133 = icmp eq ptr null, %132
  br i1 %133, label %134, label %149

134:                                              ; preds = %126
  br label %135

135:                                              ; preds = %134
  br label %136

136:                                              ; preds = %135
  br label %137

137:                                              ; preds = %136
  %138 = load i64, ptr @H5E_DATASPACE_g, align 8
  %139 = load i64, ptr @H5E_CANTCREATE_g, align 8
  %140 = call i32 (ptr, ptr, i32, i64, i64, ptr, ...) @H5E_printf_stack(ptr noundef @.str, ptr noundef @__func__.H5Z__prepare_prelude_callback_dcpl, i32 noundef 893, i64 noundef %138, i64 noundef %139, ptr noundef @.str.56)
  br label %141

141:                                              ; preds = %137
  store i8 1, ptr %10, align 1
  %142 = load i8, ptr %10, align 1
  %143 = trunc i8 %142 to i1
  %144 = zext i1 %143 to i8
  store i8 %144, ptr %10, align 1
  br label %145

145:                                              ; preds = %141
  br label %146

146:                                              ; preds = %145
  store i32 -1, ptr %9, align 4
  br label %196

147:                                              ; No predecessors!
  br label %148

148:                                              ; preds = %147
  br label %149

149:                                              ; preds = %148, %126
  %150 = load ptr, ptr %14, align 8
  %151 = call i64 @H5I_register(i32 noundef 4, ptr noundef %150, i1 noundef zeroext false)
  store i64 %151, ptr %7, align 8
  %152 = icmp slt i64 %151, 0
  br i1 %152, label %153, label %170

153:                                              ; preds = %149
  %154 = load ptr, ptr %14, align 8
  %155 = call i32 @H5S_close(ptr noundef %154)
  br label %156

156:                                              ; preds = %153
  br label %157

157:                                              ; preds = %156
  br label %158

158:                                              ; preds = %157
  %159 = load i64, ptr @H5E_ID_g, align 8
  %160 = load i64, ptr @H5E_CANTREGISTER_g, align 8
  %161 = call i32 (ptr, ptr, i32, i64, i64, ptr, ...) @H5E_printf_stack(ptr noundef @.str, ptr noundef @__func__.H5Z__prepare_prelude_callback_dcpl, i32 noundef 898, i64 noundef %159, i64 noundef %160, ptr noundef @.str.57)
  br label %162

162:                                              ; preds = %158
  store i8 1, ptr %10, align 1
  %163 = load i8, ptr %10, align 1
  %164 = trunc i8 %163 to i1
  %165 = zext i1 %164 to i8
  store i8 %165, ptr %10, align 1
  br label %166

166:                                              ; preds = %162
  br label %167

167:                                              ; preds = %166
  store i32 -1, ptr %9, align 4
  br label %196

168:                                              ; No predecessors!
  br label %169

169:                                              ; preds = %168
  br label %170

170:                                              ; preds = %169, %149
  %171 = load i64, ptr %4, align 8
  %172 = load i64, ptr %5, align 8
  %173 = load i64, ptr %7, align 8
  %174 = load i32, ptr %6, align 4
  %175 = call i32 @H5Z__prelude_callback(ptr noundef %12, i64 noundef %171, i64 noundef %172, i64 noundef %173, i32 noundef %174)
  %176 = icmp slt i32 %175, 0
  br i1 %176, label %177, label %192

177:                                              ; preds = %170
  br label %178

178:                                              ; preds = %177
  br label %179

179:                                              ; preds = %178
  br label %180

180:                                              ; preds = %179
  %181 = load i64, ptr @H5E_PLINE_g, align 8
  %182 = load i64, ptr @H5E_CANAPPLY_g, align 8
  %183 = call i32 (ptr, ptr, i32, i64, i64, ptr, ...) @H5E_printf_stack(ptr noundef @.str, ptr noundef @__func__.H5Z__prepare_prelude_callback_dcpl, i32 noundef 903, i64 noundef %181, i64 noundef %182, ptr noundef @.str.21)
  br label %184

184:                                              ; preds = %180
  store i8 1, ptr %10, align 1
  %185 = load i8, ptr %10, align 1
  %186 = trunc i8 %185 to i1
  %187 = zext i1 %186 to i8
  store i8 %187, ptr %10, align 1
  br label %188

188:                                              ; preds = %184
  br label %189

189:                                              ; preds = %188
  store i32 -1, ptr %9, align 4
  br label %196

190:                                              ; No predecessors!
  br label %191

191:                                              ; preds = %190
  br label %192

192:                                              ; preds = %191, %170
  br label %193

193:                                              ; preds = %192, %100
  br label %194

194:                                              ; preds = %193, %76
  br label %195

195:                                              ; preds = %194, %3
  br label %196

196:                                              ; preds = %195, %189, %167, %146, %97, %73, %53, %34
  %197 = load i64, ptr %7, align 8
  %198 = icmp sgt i64 %197, 0
  br i1 %198, label %199, label %216

199:                                              ; preds = %196
  %200 = load i64, ptr %7, align 8
  %201 = call i32 @H5I_dec_ref(i64 noundef %200)
  %202 = icmp slt i32 %201, 0
  br i1 %202, label %203, label %216

203:                                              ; preds = %199
  br label %204

204:                                              ; preds = %203
  br label %205

205:                                              ; preds = %204
  br label %206

206:                                              ; preds = %205
  %207 = load i64, ptr @H5E_PLINE_g, align 8
  %208 = load i64, ptr @H5E_CANTRELEASE_g, align 8
  %209 = call i32 (ptr, ptr, i32, i64, i64, ptr, ...) @H5E_printf_stack(ptr noundef @.str, ptr noundef @__func__.H5Z__prepare_prelude_callback_dcpl, i32 noundef 910, i64 noundef %207, i64 noundef %208, ptr noundef @.str.58)
  br label %210

210:                                              ; preds = %206
  store i8 1, ptr %10, align 1
  %211 = load i8, ptr %10, align 1
  %212 = trunc i8 %211 to i1
  %213 = zext i1 %212 to i8
  store i8 %213, ptr %10, align 1
  br label %214

214:                                              ; preds = %210
  store i32 -1, ptr %9, align 4
  br label %215

215:                                              ; preds = %214
  br label %216

216:                                              ; preds = %215, %199, %196
  %217 = load ptr, ptr %8, align 8
  %218 = icmp ne ptr %217, null
  br i1 %218, label %219, label %222

219:                                              ; preds = %216
  %220 = load ptr, ptr %8, align 8
  %221 = call ptr @H5MM_xfree(ptr noundef %220)
  store ptr %221, ptr %8, align 8
  br label %222

222:                                              ; preds = %219, %216
  %223 = load i32, ptr %9, align 4
  ret i32 %223
}