; Function Attrs: nounwind uwtable
define internal fastcc range(i32 -1, 1) i32 @H5Z__prepare_prelude_callback_dcpl(i64 noundef %0, i64 noundef %1, i32 noundef %2) unnamed_addr #0 {
  %4 = alloca %struct.H5O_pline_t, align 8
  %5 = alloca [33 x i64], align 16
  %6 = load i64, ptr @H5P_LST_DATASET_CREATE_ID_g, align 8
  %.not = icmp eq i64 %6, %0
  br i1 %.not, label %81, label %7

7:                                                ; preds = %3
  %8 = tail call noalias dereferenceable_or_null(2256) ptr @calloc(i64 noundef 1, i64 noundef 2256) #10
  %9 = icmp eq ptr %8, null
  br i1 %9, label %10, label %14

10:                                               ; preds = %7
  %11 = load i64, ptr @H5E_RESOURCE_g, align 8
  %12 = load i64, ptr @H5E_NOSPACE_g, align 8
  %13 = tail call i32 (ptr, ptr, i32, i64, i64, ptr, ...) @H5E_printf_stack(ptr noundef nonnull @.str, ptr noundef nonnull @__func__.H5Z__prepare_prelude_callback_dcpl, i32 noundef 865, i64 noundef %11, i64 noundef %12, ptr noundef nonnull @.str.53) #9
  br label %81

14:                                               ; preds = %7
  %15 = tail call ptr @H5I_object(i64 noundef %0) #9
  %16 = icmp eq ptr %15, null
  br i1 %16, label %17, label %21

17:                                               ; preds = %14
  %18 = load i64, ptr @H5E_ARGS_g, align 8
  %19 = load i64, ptr @H5E_BADTYPE_g, align 8
  %20 = tail call i32 (ptr, ptr, i32, i64, i64, ptr, ...) @H5E_printf_stack(ptr noundef nonnull @.str, ptr noundef nonnull @__func__.H5Z__prepare_prelude_callback_dcpl, i32 noundef 869, i64 noundef %18, i64 noundef %19, ptr noundef nonnull @.str.23) #9
  br label %.thread48

21:                                               ; preds = %14
  %22 = tail call i32 @H5P_peek(ptr noundef nonnull %15, ptr noundef nonnull @.str.54, ptr noundef nonnull %8) #9
  %23 = icmp slt i32 %22, 0
  br i1 %23, label %24, label %28

24:                                               ; preds = %21
  %25 = load i64, ptr @H5E_PLIST_g, align 8
  %26 = load i64, ptr @H5E_CANTGET_g, align 8
  %27 = tail call i32 (ptr, ptr, i32, i64, i64, ptr, ...) @H5E_printf_stack(ptr noundef nonnull @.str, ptr noundef nonnull @__func__.H5Z__prepare_prelude_callback_dcpl, i32 noundef 873, i64 noundef %25, i64 noundef %26, ptr noundef nonnull @.str.55) #9
  br label %.thread48

28:                                               ; preds = %21
  %29 = load i32, ptr %8, align 8
  %30 = icmp eq i32 %29, 2
  br i1 %30, label %31, label %.thread48

31:                                               ; preds = %28
  %32 = call i32 @H5P_peek(ptr noundef nonnull %15, ptr noundef nonnull @.str.24, ptr noundef nonnull %4) #9
  %33 = icmp slt i32 %32, 0
  br i1 %33, label %34, label %38

34:                                               ; preds = %31
  %35 = load i64, ptr @H5E_PLIST_g, align 8
  %36 = load i64, ptr @H5E_CANTGET_g, align 8
  %37 = call i32 (ptr, ptr, i32, i64, i64, ptr, ...) @H5E_printf_stack(ptr noundef nonnull @.str, ptr noundef nonnull @__func__.H5Z__prepare_prelude_callback_dcpl, i32 noundef 881, i64 noundef %35, i64 noundef %36, ptr noundef nonnull @.str.25) #9
  br label %.thread48

38:                                               ; preds = %31
  %39 = getelementptr inbounds i8, ptr %4, i64 56
  %40 = load i64, ptr %39, align 8
  %.not41 = icmp eq i64 %40, 0
  br i1 %.not41, label %.thread48, label %.preheader

.preheader:                                       ; preds = %38
  %41 = getelementptr inbounds i8, ptr %8, i64 24
  %42 = load i32, ptr %41, align 8
  %43 = zext i32 %42 to i64
  %.not62 = icmp eq i32 %42, 0
  br i1 %.not62, label %._crit_edge, label %.lr.ph

.lr.ph:                                           ; preds = %.preheader
  %44 = getelementptr inbounds i8, ptr %8, i64 28
  br label %45

45:                                               ; preds = %.lr.ph, %45
  %.061 = phi i64 [ 0, %.lr.ph ], [ %50, %45 ]
  %46 = getelementptr inbounds [33 x i32], ptr %44, i64 0, i64 %.061
  %47 = load i32, ptr %46, align 4
  %48 = zext i32 %47 to i64
  %49 = getelementptr inbounds [33 x i64], ptr %5, i64 0, i64 %.061
  store i64 %48, ptr %49, align 8
  %50 = add nuw nsw i64 %.061, 1
  %exitcond.not = icmp eq i64 %50, %43
  br i1 %exitcond.not, label %._crit_edge, label %45

._crit_edge:                                      ; preds = %45, %.preheader
  %51 = call ptr @H5S_create_simple(i32 noundef %42, ptr noundef nonnull %5, ptr noundef null) #9
  %52 = icmp eq ptr %51, null
  br i1 %52, label %53, label %57

53:                                               ; preds = %._crit_edge
  %54 = load i64, ptr @H5E_DATASPACE_g, align 8
  %55 = load i64, ptr @H5E_CANTCREATE_g, align 8
  %56 = call i32 (ptr, ptr, i32, i64, i64, ptr, ...) @H5E_printf_stack(ptr noundef nonnull @.str, ptr noundef nonnull @__func__.H5Z__prepare_prelude_callback_dcpl, i32 noundef 893, i64 noundef %54, i64 noundef %55, ptr noundef nonnull @.str.56) #9
  br label %.thread48

57:                                               ; preds = %._crit_edge
  %58 = call i64 @H5I_register(i32 noundef 4, ptr noundef nonnull %51, i1 noundef zeroext false) #9
  %59 = icmp slt i64 %58, 0
  br i1 %59, label %60, label %65

60:                                               ; preds = %57
  %61 = call i32 @H5S_close(ptr noundef nonnull %51) #9
  %62 = load i64, ptr @H5E_ID_g, align 8
  %63 = load i64, ptr @H5E_CANTREGISTER_g, align 8
  %64 = call i32 (ptr, ptr, i32, i64, i64, ptr, ...) @H5E_printf_stack(ptr noundef nonnull @.str, ptr noundef nonnull @__func__.H5Z__prepare_prelude_callback_dcpl, i32 noundef 898, i64 noundef %62, i64 noundef %63, ptr noundef nonnull @.str.57) #9
  br label %.thread48

65:                                               ; preds = %57
  %66 = call fastcc i32 @H5Z__prelude_callback(ptr noundef nonnull %4, i64 noundef %0, i64 noundef %1, i64 noundef %58, i32 noundef %2)
  %67 = icmp slt i32 %66, 0
  br i1 %67, label %68, label %72

68:                                               ; preds = %65
  %69 = load i64, ptr @H5E_PLINE_g, align 8
  %70 = load i64, ptr @H5E_CANAPPLY_g, align 8
  %71 = call i32 (ptr, ptr, i32, i64, i64, ptr, ...) @H5E_printf_stack(ptr noundef nonnull @.str, ptr noundef nonnull @__func__.H5Z__prepare_prelude_callback_dcpl, i32 noundef 903, i64 noundef %69, i64 noundef %70, ptr noundef nonnull @.str.21) #9
  br label %72

72:                                               ; preds = %65, %68
  %.033 = phi i32 [ -1, %68 ], [ 0, %65 ]
  %.not60 = icmp eq i64 %58, 0
  br i1 %.not60, label %.thread48, label %73

73:                                               ; preds = %72
  %74 = call i32 @H5I_dec_ref(i64 noundef %58) #9
  %75 = icmp slt i32 %74, 0
  br i1 %75, label %76, label %.thread48

76:                                               ; preds = %73
  %77 = load i64, ptr @H5E_PLINE_g, align 8
  %78 = load i64, ptr @H5E_CANTRELEASE_g, align 8
  %79 = call i32 (ptr, ptr, i32, i64, i64, ptr, ...) @H5E_printf_stack(ptr noundef nonnull @.str, ptr noundef nonnull @__func__.H5Z__prepare_prelude_callback_dcpl, i32 noundef 910, i64 noundef %77, i64 noundef %78, ptr noundef nonnull @.str.58) #9
  br label %.thread48

.thread48:                                        ; preds = %17, %24, %34, %53, %60, %38, %28, %72, %73, %76
  %.153 = phi i32 [ %.033, %72 ], [ %.033, %73 ], [ -1, %76 ], [ -1, %17 ], [ -1, %24 ], [ -1, %34 ], [ -1, %53 ], [ -1, %60 ], [ 0, %38 ], [ 0, %28 ]
  %80 = call ptr @H5MM_xfree(ptr noundef nonnull %8) #9
  br label %81

81:                                               ; preds = %3, %10, %.thread48
  %.154 = phi i32 [ %.153, %.thread48 ], [ 0, %3 ], [ -1, %10 ]
  ret i32 %.154
}